(lp1
(ibacnet_io
BacnetDev
p2
(dp3
S'h_dev'
p4
(dp5
S'mac'
p6
(lp7
I128
aI32
aI247
aI215
aI186
aI192
asS'max_apdu'
p8
I1500
sS'adr'
p9
(lp10
sS'net'
p11
I0
sS'device_id'
p12
I86000
ssS'objs'
p13
(lp14
(ibacnet_io
BacnetObj
p15
(dp16
S'units'
p17
NsS'h_obj'
p18
(dp19
S'type_str'
p20
S'Device'
p21
sS'instance'
p22
I86000
sS'type'
p23
I8
ssS'name'
p24
S'WS86000'
p25
sS'parent'
p26
g2
sS'desc'
p27
S'UNKNOWN'
p28
sbasg24
S'WS86000'
p29
sg27
S'UNKNOWN'
p30
sba(ibacnet_io
BacnetDev
p31
(dp32
g4
(dp33
g6
(lp34
I128
aI32
aI247
aI215
aI186
aI192
asg8
I1500
sg9
(lp35
I0
aI0
aI0
aI0
aI33
aI153
asg11
I86
sg12
I86001
ssg13
(lp36
(ibacnet_io
BacnetObj
p37
(dp38
g17
Nsg18
(dp39
g20
S'Binary Output'
p40
sg22
I1
sg23
I4
ssg24
S'RELAY01'
p41
sg26
g31
sg27
S'CORE AREAS'
p42
sba(ibacnet_io
BacnetObj
p43
(dp44
g17
Nsg18
(dp45
g20
S'Binary Output'
p46
sg22
I2
sg23
I4
ssg24
S'RELAY02'
p47
sg26
g31
sg27
S'SITE LTG'
p48
sba(ibacnet_io
BacnetObj
p49
(dp50
g17
Nsg18
(dp51
g20
S'Binary Output'
p52
sg22
I3
sg23
I4
ssg24
S'RELAY03'
p53
sg26
g31
sg27
S'SPARE'
p54
sba(ibacnet_io
BacnetObj
p55
(dp56
g17
Nsg18
(dp57
g20
S'Binary Output'
p58
sg22
I4
sg23
I4
ssg24
S'RELAY04'
p59
sg26
g31
sg27
S'SPARE'
p60
sba(ibacnet_io
BacnetObj
p61
(dp62
g17
Nsg18
(dp63
g20
S'Binary Output'
p64
sg22
I5
sg23
I4
ssg24
S'RELAY05'
p65
sg26
g31
sg27
S'SPARE'
p66
sba(ibacnet_io
BacnetObj
p67
(dp68
g17
Nsg18
(dp69
g20
S'Binary Output'
p70
sg22
I6
sg23
I4
ssg24
S'RELAY06'
p71
sg26
g31
sg27
S'SPARE'
p72
sba(ibacnet_io
BacnetObj
p73
(dp74
g17
Nsg18
(dp75
g20
S'Binary Output'
p76
sg22
I7
sg23
I4
ssg24
S'RELAY07'
p77
sg26
g31
sg27
S'SPARE'
p78
sba(ibacnet_io
BacnetObj
p79
(dp80
g17
Nsg18
(dp81
g20
S'Binary Output'
p82
sg22
I8
sg23
I4
ssg24
S'RELAY08'
p83
sg26
g31
sg27
S'SPARE'
p84
sba(ibacnet_io
BacnetObj
p85
(dp86
g17
Nsg18
(dp87
g20
S'Binary Output'
p88
sg22
I9
sg23
I4
ssg24
S'RELAY09'
p89
sg26
g31
sg27
S'SPARE'
p90
sba(ibacnet_io
BacnetObj
p91
(dp92
g17
Nsg18
(dp93
g20
S'Binary Output'
p94
sg22
I10
sg23
I4
ssg24
S'RELAY10'
p95
sg26
g31
sg27
S'SPARE'
p96
sba(ibacnet_io
BacnetObj
p97
(dp98
g17
Nsg18
(dp99
g20
S'Binary Output'
p100
sg22
I11
sg23
I4
ssg24
S'RELAY11'
p101
sg26
g31
sg27
S'SPARE'
p102
sba(ibacnet_io
BacnetObj
p103
(dp104
g17
Nsg18
(dp105
g20
S'Binary Output'
p106
sg22
I12
sg23
I4
ssg24
S'RELAY12'
p107
sg26
g31
sg27
S'SPARE'
p108
sba(ibacnet_io
BacnetObj
p109
(dp110
g17
Nsg18
(dp111
g20
S'Binary Output'
p112
sg22
I13
sg23
I4
ssg24
S'RELAY13'
p113
sg26
g31
sg27
S'SPARE'
p114
sba(ibacnet_io
BacnetObj
p115
(dp116
g17
Nsg18
(dp117
g20
S'Binary Output'
p118
sg22
I14
sg23
I4
ssg24
S'RELAY14'
p119
sg26
g31
sg27
S'SPARE'
p120
sba(ibacnet_io
BacnetObj
p121
(dp122
g17
Nsg18
(dp123
g20
S'Binary Output'
p124
sg22
I15
sg23
I4
ssg24
S'RELAY15'
p125
sg26
g31
sg27
S'SPARE'
p126
sba(ibacnet_io
BacnetObj
p127
(dp128
g17
Nsg18
(dp129
g20
S'Binary Output'
p130
sg22
I16
sg23
I4
ssg24
S'RELAY16'
p131
sg26
g31
sg27
S'SPARE'
p132
sba(ibacnet_io
BacnetObj
p133
(dp134
g17
Nsg18
(dp135
g20
S'Binary Output'
p136
sg22
I17
sg23
I4
ssg24
S'RELAY17'
p137
sg26
g31
sg27
S''
sba(ibacnet_io
BacnetObj
p138
(dp139
g17
Nsg18
(dp140
g20
S'Binary Output'
p141
sg22
I18
sg23
I4
ssg24
S'RELAY18'
p142
sg26
g31
sg27
S''
sba(ibacnet_io
BacnetObj
p143
(dp144
g17
Nsg18
(dp145
g20
S'Binary Output'
p146
sg22
I19
sg23
I4
ssg24
S'RELAY19'
p147
sg26
g31
sg27
S''
sba(ibacnet_io
BacnetObj
p148
(dp149
g17
Nsg18
(dp150
g20
S'Binary Output'
p151
sg22
I20
sg23
I4
ssg24
S'RELAY20'
p152
sg26
g31
sg27
S''
sba(ibacnet_io
BacnetObj
p153
(dp154
g17
Nsg18
(dp155
g20
S'Binary Output'
p156
sg22
I21
sg23
I4
ssg24
S'RELAY21'
p157
sg26
g31
sg27
S''
sba(ibacnet_io
BacnetObj
p158
(dp159
g17
Nsg18
(dp160
g20
S'Binary Output'
p161
sg22
I22
sg23
I4
ssg24
S'RELAY22'
p162
sg26
g31
sg27
S''
sba(ibacnet_io
BacnetObj
p163
(dp164
g17
Nsg18
(dp165
g20
S'Binary Output'
p166
sg22
I23
sg23
I4
ssg24
S'RELAY23'
p167
sg26
g31
sg27
S''
sba(ibacnet_io
BacnetObj
p168
(dp169
g17
Nsg18
(dp170
g20
S'Binary Output'
p171
sg22
I24
sg23
I4
ssg24
S'RELAY24'
p172
sg26
g31
sg27
S''
sba(ibacnet_io
BacnetObj
p173
(dp174
g17
Nsg18
(dp175
g20
S'Device'
p176
sg22
I86001
sg23
I8
ssg24
S'WS86001'
p177
sg26
g31
sg27
S'RP1'
p178
sbasg24
S'WS86001'
p179
sg27
S'RP1'
p180
sba(ibacnet_io
BacnetDev
p181
(dp182
g4
(dp183
g6
(lp184
I128
aI32
aI247
aI215
aI186
aI192
asg8
I1500
sg9
(lp185
I0
aI0
aI0
aI0
aI33
aI154
asg11
I86
sg12
I86002
ssg13
(lp186
(ibacnet_io
BacnetObj
p187
(dp188
g17
Nsg18
(dp189
g20
S'Binary Output'
p190
sg22
I1
sg23
I4
ssg24
S'RELAY01'
p191
sg26
g181
sg27
S'CORE AREAS'
p192
sba(ibacnet_io
BacnetObj
p193
(dp194
g17
Nsg18
(dp195
g20
S'Binary Output'
p196
sg22
I2
sg23
I4
ssg24
S'RELAY02'
p197
sg26
g181
sg27
S'HALLWAY, VESTIBULES'
p198
sba(ibacnet_io
BacnetObj
p199
(dp200
g17
Nsg18
(dp201
g20
S'Binary Output'
p202
sg22
I3
sg23
I4
ssg24
S'RELAY03'
p203
sg26
g181
sg27
S'Computer Lab 200'
p204
sba(ibacnet_io
BacnetObj
p205
(dp206
g17
Nsg18
(dp207
g20
S'Binary Output'
p208
sg22
I4
sg23
I4
ssg24
S'RELAY04'
p209
sg26
g181
sg27
S'RECEIVING, STORAGE'
p210
sba(ibacnet_io
BacnetObj
p211
(dp212
g17
Nsg18
(dp213
g20
S'Binary Output'
p214
sg22
I5
sg23
I4
ssg24
S'RELAY05'
p215
sg26
g181
sg27
S'CLASSROOM 250, BREAK OUT 238, A/V EQUIP 242'
p216
sba(ibacnet_io
BacnetObj
p217
(dp218
g17
Nsg18
(dp219
g20
S'Binary Output'
p220
sg22
I6
sg23
I4
ssg24
S'RELAY06'
p221
sg26
g181
sg27
S'CLASSROOM 250, A/V EQUIP 252'
p222
sba(ibacnet_io
BacnetObj
p223
(dp224
g17
Nsg18
(dp225
g20
S'Binary Output'
p226
sg22
I7
sg23
I4
ssg24
S'RELAY07'
p227
sg26
g181
sg27
S'CLASSROOM 254, A/V 256'
p228
sba(ibacnet_io
BacnetObj
p229
(dp230
g17
Nsg18
(dp231
g20
S'Binary Output'
p232
sg22
I8
sg23
I4
ssg24
S'RELAY08'
p233
sg26
g181
sg27
S'CHILLERS 261'
p234
sba(ibacnet_io
BacnetObj
p235
(dp236
g17
Nsg18
(dp237
g20
S'Binary Output'
p238
sg22
I9
sg23
I4
ssg24
S'RELAY09'
p239
sg26
g181
sg27
S'SUB-FAB MECHANICAL SPACE 280'
p240
sba(ibacnet_io
BacnetObj
p241
(dp242
g17
Nsg18
(dp243
g20
S'Binary Output'
p244
sg22
I10
sg23
I4
ssg24
S'RELAY10'
p245
sg26
g181
sg27
S'ELEVATOR LOBBY 270'
p246
sba(ibacnet_io
BacnetObj
p247
(dp248
g17
Nsg18
(dp249
g20
S'Binary Output'
p250
sg22
I11
sg23
I4
ssg24
S'RELAY11'
p251
sg26
g181
sg27
S'SPARE'
p252
sba(ibacnet_io
BacnetObj
p253
(dp254
g17
Nsg18
(dp255
g20
S'Binary Output'
p256
sg22
I12
sg23
I4
ssg24
S'RELAY12'
p257
sg26
g181
sg27
S'210-C DINING AREA (Daylighting)'
p258
sba(ibacnet_io
BacnetObj
p259
(dp260
g17
Nsg18
(dp261
g20
S'Binary Output'
p262
sg22
I13
sg23
I4
ssg24
S'RELAY13'
p263
sg26
g181
sg27
S'210-C DINING AREA'
p264
sba(ibacnet_io
BacnetObj
p265
(dp266
g17
Nsg18
(dp267
g20
S'Binary Output'
p268
sg22
I14
sg23
I4
ssg24
S'RELAY14'
p269
sg26
g181
sg27
S'210-B DINING AREA'
p270
sba(ibacnet_io
BacnetObj
p271
(dp272
g17
Nsg18
(dp273
g20
S'Binary Output'
p274
sg22
I15
sg23
I4
ssg24
S'RELAY15'
p275
sg26
g181
sg27
S'210-B DINING AREA'
p276
sba(ibacnet_io
BacnetObj
p277
(dp278
g17
Nsg18
(dp279
g20
S'Binary Output'
p280
sg22
I16
sg23
I4
ssg24
S'RELAY16'
p281
sg26
g181
sg27
S'210-A DINING AREA'
p282
sba(ibacnet_io
BacnetObj
p283
(dp284
g17
Nsg18
(dp285
g20
S'Binary Output'
p286
sg22
I17
sg23
I4
ssg24
S'RELAY17'
p287
sg26
g181
sg27
S'214 FOOD SERVICE AREA'
p288
sba(ibacnet_io
BacnetObj
p289
(dp290
g17
Nsg18
(dp291
g20
S'Binary Output'
p292
sg22
I18
sg23
I4
ssg24
S'RELAY18'
p293
sg26
g181
sg27
S'214 FOOD SERVICE AREA'
p294
sba(ibacnet_io
BacnetObj
p295
(dp296
g17
Nsg18
(dp297
g20
S'Binary Output'
p298
sg22
I19
sg23
I4
ssg24
S'RELAY19'
p299
sg26
g181
sg27
S'210 TRACK LIGHTS'
p300
sba(ibacnet_io
BacnetObj
p301
(dp302
g17
Nsg18
(dp303
g20
S'Binary Output'
p304
sg22
I20
sg23
I4
ssg24
S'RELAY20'
p305
sg26
g181
sg27
S'210 TRACK LIGHTS'
p306
sba(ibacnet_io
BacnetObj
p307
(dp308
g17
Nsg18
(dp309
g20
S'Binary Output'
p310
sg22
I21
sg23
I4
ssg24
S'RELAY21'
p311
sg26
g181
sg27
S'210-C TRACK LIGHTS'
p312
sba(ibacnet_io
BacnetObj
p313
(dp314
g17
Nsg18
(dp315
g20
S'Binary Output'
p316
sg22
I22
sg23
I4
ssg24
S'RELAY22'
p317
sg26
g181
sg27
S'210 TRACK LIGHTS'
p318
sba(ibacnet_io
BacnetObj
p319
(dp320
g17
Nsg18
(dp321
g20
S'Binary Output'
p322
sg22
I23
sg23
I4
ssg24
S'RELAY23'
p323
sg26
g181
sg27
S'210 TRACK LIGHTS'
p324
sba(ibacnet_io
BacnetObj
p325
(dp326
g17
Nsg18
(dp327
g20
S'Binary Output'
p328
sg22
I24
sg23
I4
ssg24
S'RELAY24'
p329
sg26
g181
sg27
S'210-A TRACK LIGHTS'
p330
sba(ibacnet_io
BacnetObj
p331
(dp332
g17
Nsg18
(dp333
g20
S'Device'
p334
sg22
I86002
sg23
I8
ssg24
S'WS86002'
p335
sg26
g181
sg27
S'RP2 '
p336
sbasg24
S'WS86002'
p337
sg27
S'RP2 '
p338
sba(ibacnet_io
BacnetDev
p339
(dp340
g4
(dp341
g6
(lp342
I128
aI32
aI247
aI215
aI186
aI192
asg8
I1500
sg9
(lp343
I0
aI0
aI0
aI0
aI33
aI155
asg11
I86
sg12
I86003
ssg13
(lp344
(ibacnet_io
BacnetObj
p345
(dp346
g17
Nsg18
(dp347
g20
S'Binary Output'
p348
sg22
I1
sg23
I4
ssg24
S'RELAY01'
p349
sg26
g339
sg27
S'SITE LIGHTING'
p350
sba(ibacnet_io
BacnetObj
p351
(dp352
g17
Nsg18
(dp353
g20
S'Binary Output'
p354
sg22
I2
sg23
I4
ssg24
S'RELAY02'
p355
sg26
g339
sg27
S'SITE LIGHTING'
p356
sba(ibacnet_io
BacnetObj
p357
(dp358
g17
Nsg18
(dp359
g20
S'Binary Output'
p360
sg22
I3
sg23
I4
ssg24
S'RELAY03'
p361
sg26
g339
sg27
S'SITE LIGHTING'
p362
sba(ibacnet_io
BacnetObj
p363
(dp364
g17
Nsg18
(dp365
g20
S'Binary Output'
p366
sg22
I4
sg23
I4
ssg24
S'RELAY04'
p367
sg26
g339
sg27
S'EXTERIOR LTS LVL 3'
p368
sba(ibacnet_io
BacnetObj
p369
(dp370
g17
Nsg18
(dp371
g20
S'Binary Output'
p372
sg22
I5
sg23
I4
ssg24
S'RELAY05'
p373
sg26
g339
sg27
S'EXTERIOR LTS LVL 3'
p374
sba(ibacnet_io
BacnetObj
p375
(dp376
g17
Nsg18
(dp377
g20
S'Binary Output'
p378
sg22
I6
sg23
I4
ssg24
S'RELAY06'
p379
sg26
g339
sg27
S'EXTERIOR LTS LVL 2'
p380
sba(ibacnet_io
BacnetObj
p381
(dp382
g17
Nsg18
(dp383
g20
S'Binary Output'
p384
sg22
I7
sg23
I4
ssg24
S'RELAY07'
p385
sg26
g339
sg27
S'BRIDGE LIGHTS'
p386
sba(ibacnet_io
BacnetObj
p387
(dp388
g17
Nsg18
(dp389
g20
S'Binary Output'
p390
sg22
I8
sg23
I4
ssg24
S'RELAY08'
p391
sg26
g339
sg27
S'SPARE'
p392
sba(ibacnet_io
BacnetObj
p393
(dp394
g17
Nsg18
(dp395
g20
S'Binary Output'
p396
sg22
I9
sg23
I4
ssg24
S'RELAY09'
p397
sg26
g339
sg27
S'SPARE'
p398
sba(ibacnet_io
BacnetObj
p399
(dp400
g17
Nsg18
(dp401
g20
S'Binary Output'
p402
sg22
I10
sg23
I4
ssg24
S'RELAY10'
p403
sg26
g339
sg27
S'SPARE'
p404
sba(ibacnet_io
BacnetObj
p405
(dp406
g17
Nsg18
(dp407
g20
S'Binary Output'
p408
sg22
I11
sg23
I4
ssg24
S'RELAY11'
p409
sg26
g339
sg27
S'SPARE'
p410
sba(ibacnet_io
BacnetObj
p411
(dp412
g17
Nsg18
(dp413
g20
S'Binary Output'
p414
sg22
I12
sg23
I4
ssg24
S'RELAY12'
p415
sg26
g339
sg27
S'SPARE'
p416
sba(ibacnet_io
BacnetObj
p417
(dp418
g17
Nsg18
(dp419
g20
S'Binary Output'
p420
sg22
I13
sg23
I4
ssg24
S'RELAY13'
p421
sg26
g339
sg27
S'SPARE'
p422
sba(ibacnet_io
BacnetObj
p423
(dp424
g17
Nsg18
(dp425
g20
S'Binary Output'
p426
sg22
I14
sg23
I4
ssg24
S'RELAY14'
p427
sg26
g339
sg27
S'SPARE'
p428
sba(ibacnet_io
BacnetObj
p429
(dp430
g17
Nsg18
(dp431
g20
S'Binary Output'
p432
sg22
I15
sg23
I4
ssg24
S'RELAY15'
p433
sg26
g339
sg27
S'SPARE'
p434
sba(ibacnet_io
BacnetObj
p435
(dp436
g17
Nsg18
(dp437
g20
S'Binary Output'
p438
sg22
I16
sg23
I4
ssg24
S'RELAY16'
p439
sg26
g339
sg27
S'SPARE'
p440
sba(ibacnet_io
BacnetObj
p441
(dp442
g17
Nsg18
(dp443
g20
S'Binary Output'
p444
sg22
I17
sg23
I4
ssg24
S'RELAY17'
p445
sg26
g339
sg27
S''
sba(ibacnet_io
BacnetObj
p446
(dp447
g17
Nsg18
(dp448
g20
S'Binary Output'
p449
sg22
I18
sg23
I4
ssg24
S'RELAY18'
p450
sg26
g339
sg27
S''
sba(ibacnet_io
BacnetObj
p451
(dp452
g17
Nsg18
(dp453
g20
S'Binary Output'
p454
sg22
I19
sg23
I4
ssg24
S'RELAY19'
p455
sg26
g339
sg27
S''
sba(ibacnet_io
BacnetObj
p456
(dp457
g17
Nsg18
(dp458
g20
S'Binary Output'
p459
sg22
I20
sg23
I4
ssg24
S'RELAY20'
p460
sg26
g339
sg27
S''
sba(ibacnet_io
BacnetObj
p461
(dp462
g17
Nsg18
(dp463
g20
S'Binary Output'
p464
sg22
I21
sg23
I4
ssg24
S'RELAY21'
p465
sg26
g339
sg27
S''
sba(ibacnet_io
BacnetObj
p466
(dp467
g17
Nsg18
(dp468
g20
S'Binary Output'
p469
sg22
I22
sg23
I4
ssg24
S'RELAY22'
p470
sg26
g339
sg27
S''
sba(ibacnet_io
BacnetObj
p471
(dp472
g17
Nsg18
(dp473
g20
S'Binary Output'
p474
sg22
I23
sg23
I4
ssg24
S'RELAY23'
p475
sg26
g339
sg27
S''
sba(ibacnet_io
BacnetObj
p476
(dp477
g17
Nsg18
(dp478
g20
S'Binary Output'
p479
sg22
I24
sg23
I4
ssg24
S'RELAY24'
p480
sg26
g339
sg27
S''
sba(ibacnet_io
BacnetObj
p481
(dp482
g17
Nsg18
(dp483
g20
S'Device'
p484
sg22
I86003
sg23
I8
ssg24
S'WS86003'
p485
sg26
g339
sg27
S'ERP1'
p486
sbasg24
S'WS86003'
p487
sg27
S'ERP1'
p488
sba(ibacnet_io
BacnetDev
p489
(dp490
g4
(dp491
g6
(lp492
I128
aI32
aI247
aI215
aI186
aI192
asg8
I1500
sg9
(lp493
I0
aI0
aI0
aI0
aI33
aI156
asg11
I86
sg12
I86004
ssg13
(lp494
(ibacnet_io
BacnetObj
p495
(dp496
g17
Nsg18
(dp497
g20
S'Binary Output'
p498
sg22
I1
sg23
I4
ssg24
S'RELAY01'
p499
sg26
g489
sg27
S'EXTERIOR LIGHTS LEVEL 3'
p500
sba(ibacnet_io
BacnetObj
p501
(dp502
g17
Nsg18
(dp503
g20
S'Binary Output'
p504
sg22
I2
sg23
I4
ssg24
S'RELAY02'
p505
sg26
g489
sg27
S'EXTERIOR LIGHTS LEVEL 3'
p506
sba(ibacnet_io
BacnetObj
p507
(dp508
g17
Nsg18
(dp509
g20
S'Binary Output'
p510
sg22
I3
sg23
I4
ssg24
S'RELAY03'
p511
sg26
g489
sg27
S'TERRACE LEVEL 6'
p512
sba(ibacnet_io
BacnetObj
p513
(dp514
g17
Nsg18
(dp515
g20
S'Binary Output'
p516
sg22
I4
sg23
I4
ssg24
S'RELAY04'
p517
sg26
g489
sg27
S'SPARE'
p518
sba(ibacnet_io
BacnetObj
p519
(dp520
g17
Nsg18
(dp521
g20
S'Binary Output'
p522
sg22
I5
sg23
I4
ssg24
S'RELAY05'
p523
sg26
g489
sg27
S'SPARE'
p524
sba(ibacnet_io
BacnetObj
p525
(dp526
g17
Nsg18
(dp527
g20
S'Binary Output'
p528
sg22
I6
sg23
I4
ssg24
S'RELAY06'
p529
sg26
g489
sg27
S'SPARE'
p530
sba(ibacnet_io
BacnetObj
p531
(dp532
g17
Nsg18
(dp533
g20
S'Binary Output'
p534
sg22
I7
sg23
I4
ssg24
S'RELAY07'
p535
sg26
g489
sg27
S'SPARE'
p536
sba(ibacnet_io
BacnetObj
p537
(dp538
g17
Nsg18
(dp539
g20
S'Binary Output'
p540
sg22
I8
sg23
I4
ssg24
S'RELAY08'
p541
sg26
g489
sg27
S'SPARE'
p542
sba(ibacnet_io
BacnetObj
p543
(dp544
g17
Nsg18
(dp545
g20
S'Binary Output'
p546
sg22
I9
sg23
I4
ssg24
S'RELAY09'
p547
sg26
g489
sg27
S'SPARE'
p548
sba(ibacnet_io
BacnetObj
p549
(dp550
g17
Nsg18
(dp551
g20
S'Binary Output'
p552
sg22
I10
sg23
I4
ssg24
S'RELAY10'
p553
sg26
g489
sg27
S'SPARE'
p554
sba(ibacnet_io
BacnetObj
p555
(dp556
g17
Nsg18
(dp557
g20
S'Binary Output'
p558
sg22
I11
sg23
I4
ssg24
S'RELAY11'
p559
sg26
g489
sg27
S'SPARE'
p560
sba(ibacnet_io
BacnetObj
p561
(dp562
g17
Nsg18
(dp563
g20
S'Binary Output'
p564
sg22
I12
sg23
I4
ssg24
S'RELAY12'
p565
sg26
g489
sg27
S'SPARE'
p566
sba(ibacnet_io
BacnetObj
p567
(dp568
g17
Nsg18
(dp569
g20
S'Binary Output'
p570
sg22
I13
sg23
I4
ssg24
S'RELAY13'
p571
sg26
g489
sg27
S'SPARE'
p572
sba(ibacnet_io
BacnetObj
p573
(dp574
g17
Nsg18
(dp575
g20
S'Binary Output'
p576
sg22
I14
sg23
I4
ssg24
S'RELAY14'
p577
sg26
g489
sg27
S'SPARE'
p578
sba(ibacnet_io
BacnetObj
p579
(dp580
g17
Nsg18
(dp581
g20
S'Binary Output'
p582
sg22
I15
sg23
I4
ssg24
S'RELAY15'
p583
sg26
g489
sg27
S'SPARE'
p584
sba(ibacnet_io
BacnetObj
p585
(dp586
g17
Nsg18
(dp587
g20
S'Binary Output'
p588
sg22
I16
sg23
I4
ssg24
S'RELAY16'
p589
sg26
g489
sg27
S'SPARE'
p590
sba(ibacnet_io
BacnetObj
p591
(dp592
g17
Nsg18
(dp593
g20
S'Binary Output'
p594
sg22
I17
sg23
I4
ssg24
S'RELAY17'
p595
sg26
g489
sg27
S''
sba(ibacnet_io
BacnetObj
p596
(dp597
g17
Nsg18
(dp598
g20
S'Binary Output'
p599
sg22
I18
sg23
I4
ssg24
S'RELAY18'
p600
sg26
g489
sg27
S''
sba(ibacnet_io
BacnetObj
p601
(dp602
g17
Nsg18
(dp603
g20
S'Binary Output'
p604
sg22
I19
sg23
I4
ssg24
S'RELAY19'
p605
sg26
g489
sg27
S''
sba(ibacnet_io
BacnetObj
p606
(dp607
g17
Nsg18
(dp608
g20
S'Binary Output'
p609
sg22
I20
sg23
I4
ssg24
S'RELAY20'
p610
sg26
g489
sg27
S''
sba(ibacnet_io
BacnetObj
p611
(dp612
g17
Nsg18
(dp613
g20
S'Binary Output'
p614
sg22
I21
sg23
I4
ssg24
S'RELAY21'
p615
sg26
g489
sg27
S''
sba(ibacnet_io
BacnetObj
p616
(dp617
g17
Nsg18
(dp618
g20
S'Binary Output'
p619
sg22
I22
sg23
I4
ssg24
S'RELAY22'
p620
sg26
g489
sg27
S''
sba(ibacnet_io
BacnetObj
p621
(dp622
g17
Nsg18
(dp623
g20
S'Binary Output'
p624
sg22
I23
sg23
I4
ssg24
S'RELAY23'
p625
sg26
g489
sg27
S''
sba(ibacnet_io
BacnetObj
p626
(dp627
g17
Nsg18
(dp628
g20
S'Binary Output'
p629
sg22
I24
sg23
I4
ssg24
S'RELAY24'
p630
sg26
g489
sg27
S''
sba(ibacnet_io
BacnetObj
p631
(dp632
g17
Nsg18
(dp633
g20
S'Device'
p634
sg22
I86004
sg23
I8
ssg24
S'WS86004'
p635
sg26
g489
sg27
S'ERP4'
p636
sbasg24
S'WS86004'
p637
sg27
S'ERP4'
p638
sba(ibacnet_io
BacnetDev
p639
(dp640
g4
(dp641
g6
(lp642
I128
aI32
aI247
aI215
aI186
aI192
asg8
I1500
sg9
(lp643
I0
aI0
aI0
aI0
aI33
aI157
asg11
I86
sg12
I86005
ssg13
(lp644
(ibacnet_io
BacnetObj
p645
(dp646
g17
Nsg18
(dp647
g20
S'Binary Output'
p648
sg22
I1
sg23
I4
ssg24
S'RELAY01'
p649
sg26
g639
sg27
S'CORE AREAS AND HALLWAY 360'
p650
sba(ibacnet_io
BacnetObj
p651
(dp652
g17
Nsg18
(dp653
g20
S'Binary Output'
p654
sg22
I2
sg23
I4
ssg24
S'RELAY02'
p655
sg26
g639
sg27
S'PREFUNCTION LOBBY, ELEVATOR LOBBY'
p656
sba(ibacnet_io
BacnetObj
p657
(dp658
g17
Nsg18
(dp659
g20
S'Binary Output'
p660
sg22
I3
sg23
I4
ssg24
S'RELAY03'
p661
sg26
g639
sg27
S'SOUTH-WEST OFFICES'
p662
sba(ibacnet_io
BacnetObj
p663
(dp664
g17
Nsg18
(dp665
g20
S'Binary Output'
p666
sg22
I4
sg23
I4
ssg24
S'RELAY04'
p667
sg26
g639
sg27
S'SOUTH-WEST OFFICES'
p668
sba(ibacnet_io
BacnetObj
p669
(dp670
g17
Nsg18
(dp671
g20
S'Binary Output'
p672
sg22
I5
sg23
I4
ssg24
S'RELAY05'
p673
sg26
g639
sg27
S'SOUTH-EAST OFFICES'
p674
sba(ibacnet_io
BacnetObj
p675
(dp676
g17
Nsg18
(dp677
g20
S'Binary Output'
p678
sg22
I6
sg23
I4
ssg24
S'RELAY06'
p679
sg26
g639
sg27
S'LOBBIES (FIXTURES TYPE F13 AND TYPE F14)'
p680
sba(ibacnet_io
BacnetObj
p681
(dp682
g17
Nsg18
(dp683
g20
S'Binary Output'
p684
sg22
I7
sg23
I4
ssg24
S'RELAY07'
p685
sg26
g639
sg27
S'LOBBIES (FIXTURES TYPE F6 AND F24)'
p686
sba(ibacnet_io
BacnetObj
p687
(dp688
g17
Nsg18
(dp689
g20
S'Binary Output'
p690
sg22
I8
sg23
I4
ssg24
S'RELAY08'
p691
sg26
g639
sg27
S'LOBBIES (FIXTURES TYPE F30)'
p692
sba(ibacnet_io
BacnetObj
p693
(dp694
g17
Nsg18
(dp695
g20
S'Binary Output'
p696
sg22
I9
sg23
I4
ssg24
S'RELAY09'
p697
sg26
g639
sg27
S'SPARE'
p698
sba(ibacnet_io
BacnetObj
p699
(dp700
g17
Nsg18
(dp701
g20
S'Binary Output'
p702
sg22
I10
sg23
I4
ssg24
S'RELAY10'
p703
sg26
g639
sg27
S'SPARE'
p704
sba(ibacnet_io
BacnetObj
p705
(dp706
g17
Nsg18
(dp707
g20
S'Binary Output'
p708
sg22
I11
sg23
I4
ssg24
S'RELAY11'
p709
sg26
g639
sg27
S'SPARE'
p710
sba(ibacnet_io
BacnetObj
p711
(dp712
g17
Nsg18
(dp713
g20
S'Binary Output'
p714
sg22
I12
sg23
I4
ssg24
S'RELAY12'
p715
sg26
g639
sg27
S'SPARE'
p716
sba(ibacnet_io
BacnetObj
p717
(dp718
g17
Nsg18
(dp719
g20
S'Binary Output'
p720
sg22
I13
sg23
I4
ssg24
S'RELAY13'
p721
sg26
g639
sg27
S'SPARE'
p722
sba(ibacnet_io
BacnetObj
p723
(dp724
g17
Nsg18
(dp725
g20
S'Binary Output'
p726
sg22
I14
sg23
I4
ssg24
S'RELAY14'
p727
sg26
g639
sg27
S'SPARE'
p728
sba(ibacnet_io
BacnetObj
p729
(dp730
g17
Nsg18
(dp731
g20
S'Binary Output'
p732
sg22
I15
sg23
I4
ssg24
S'RELAY15'
p733
sg26
g639
sg27
S'SPARE'
p734
sba(ibacnet_io
BacnetObj
p735
(dp736
g17
Nsg18
(dp737
g20
S'Binary Output'
p738
sg22
I16
sg23
I4
ssg24
S'RELAY16'
p739
sg26
g639
sg27
S'SPARE'
p740
sba(ibacnet_io
BacnetObj
p741
(dp742
g17
Nsg18
(dp743
g20
S'Binary Output'
p744
sg22
I17
sg23
I4
ssg24
S'RELAY17'
p745
sg26
g639
sg27
S'SPARE'
p746
sba(ibacnet_io
BacnetObj
p747
(dp748
g17
Nsg18
(dp749
g20
S'Binary Output'
p750
sg22
I18
sg23
I4
ssg24
S'RELAY18'
p751
sg26
g639
sg27
S'SPARE'
p752
sba(ibacnet_io
BacnetObj
p753
(dp754
g17
Nsg18
(dp755
g20
S'Binary Output'
p756
sg22
I19
sg23
I4
ssg24
S'RELAY19'
p757
sg26
g639
sg27
S'SPARE'
p758
sba(ibacnet_io
BacnetObj
p759
(dp760
g17
Nsg18
(dp761
g20
S'Binary Output'
p762
sg22
I20
sg23
I4
ssg24
S'RELAY20'
p763
sg26
g639
sg27
S'SPARE'
p764
sba(ibacnet_io
BacnetObj
p765
(dp766
g17
Nsg18
(dp767
g20
S'Binary Output'
p768
sg22
I21
sg23
I4
ssg24
S'RELAY21'
p769
sg26
g639
sg27
S'SPARE'
p770
sba(ibacnet_io
BacnetObj
p771
(dp772
g17
Nsg18
(dp773
g20
S'Binary Output'
p774
sg22
I22
sg23
I4
ssg24
S'RELAY22'
p775
sg26
g639
sg27
S'SPARE'
p776
sba(ibacnet_io
BacnetObj
p777
(dp778
g17
Nsg18
(dp779
g20
S'Binary Output'
p780
sg22
I23
sg23
I4
ssg24
S'RELAY23'
p781
sg26
g639
sg27
S'SPARE'
p782
sba(ibacnet_io
BacnetObj
p783
(dp784
g17
Nsg18
(dp785
g20
S'Binary Output'
p786
sg22
I24
sg23
I4
ssg24
S'RELAY24'
p787
sg26
g639
sg27
S'SPARE'
p788
sba(ibacnet_io
BacnetObj
p789
(dp790
g17
Nsg18
(dp791
g20
S'Device'
p792
sg22
I86005
sg23
I8
ssg24
S'WS86005'
p793
sg26
g639
sg27
S'RP3'
p794
sbasg24
S'WS86005'
p795
sg27
S'RP3'
p796
sba(ibacnet_io
BacnetDev
p797
(dp798
g4
(dp799
g6
(lp800
I128
aI32
aI247
aI215
aI186
aI192
asg8
I1500
sg9
(lp801
I0
aI0
aI0
aI0
aI33
aI158
asg11
I86
sg12
I86006
ssg13
(lp802
(ibacnet_io
BacnetObj
p803
(dp804
g17
Nsg18
(dp805
g20
S'Binary Output'
p806
sg22
I1
sg23
I4
ssg24
S'RELAY01'
p807
sg26
g797
sg27
S'METROLOGY RM 3M80'
p808
sba(ibacnet_io
BacnetObj
p809
(dp810
g17
Nsg18
(dp811
g20
S'Binary Output'
p812
sg22
I2
sg23
I4
ssg24
S'RELAY02'
p813
sg26
g797
sg27
S'METROLOGY RM 3M80'
p814
sba(ibacnet_io
BacnetObj
p815
(dp816
g17
Nsg18
(dp817
g20
S'Binary Output'
p818
sg22
I3
sg23
I4
ssg24
S'RELAY03'
p819
sg26
g797
sg27
S'SPARE'
p820
sba(ibacnet_io
BacnetObj
p821
(dp822
g17
Nsg18
(dp823
g20
S'Binary Output'
p824
sg22
I4
sg23
I4
ssg24
S'RELAY04'
p825
sg26
g797
sg27
S'CLEAN ROOM MAIN AISLE'
p826
sba(ibacnet_io
BacnetObj
p827
(dp828
g17
Nsg18
(dp829
g20
S'Binary Output'
p830
sg22
I5
sg23
I4
ssg24
S'RELAY05'
p831
sg26
g797
sg27
S'CLEAN ROOM MAIN AISLE'
p832
sba(ibacnet_io
BacnetObj
p833
(dp834
g17
Nsg18
(dp835
g20
S'Binary Output'
p836
sg22
I6
sg23
I4
ssg24
S'RELAY06'
p837
sg26
g797
sg27
S'SPARE'
p838
sba(ibacnet_io
BacnetObj
p839
(dp840
g17
Nsg18
(dp841
g20
S'Binary Output'
p842
sg22
I7
sg23
I4
ssg24
S'RELAY07'
p843
sg26
g797
sg27
S'MASK MAKING RM 3M87'
p844
sba(ibacnet_io
BacnetObj
p845
(dp846
g17
Nsg18
(dp847
g20
S'Binary Output'
p848
sg22
I8
sg23
I4
ssg24
S'RELAY08'
p849
sg26
g797
sg27
S'MASK MAKING RM 3M87'
p850
sba(ibacnet_io
BacnetObj
p851
(dp852
g17
Nsg18
(dp853
g20
S'Binary Output'
p854
sg22
I9
sg23
I4
ssg24
S'RELAY09'
p855
sg26
g797
sg27
S'SPARE'
p856
sba(ibacnet_io
BacnetObj
p857
(dp858
g17
Nsg18
(dp859
g20
S'Binary Output'
p860
sg22
I10
sg23
I4
ssg24
S'RELAY10'
p861
sg26
g797
sg27
S'PHOTO RM 3M82'
p862
sba(ibacnet_io
BacnetObj
p863
(dp864
g17
Nsg18
(dp865
g20
S'Binary Output'
p866
sg22
I11
sg23
I4
ssg24
S'RELAY11'
p867
sg26
g797
sg27
S'PHOTO RM 3M82'
p868
sba(ibacnet_io
BacnetObj
p869
(dp870
g17
Nsg18
(dp871
g20
S'Binary Output'
p872
sg22
I12
sg23
I4
ssg24
S'RELAY12'
p873
sg26
g797
sg27
S'SPARE'
p874
sba(ibacnet_io
BacnetObj
p875
(dp876
g17
Nsg18
(dp877
g20
S'Binary Output'
p878
sg22
I13
sg23
I4
ssg24
S'RELAY13'
p879
sg26
g797
sg27
S'PHOTO RM 3M84'
p880
sba(ibacnet_io
BacnetObj
p881
(dp882
g17
Nsg18
(dp883
g20
S'Binary Output'
p884
sg22
I14
sg23
I4
ssg24
S'RELAY14'
p885
sg26
g797
sg27
S'PHOTO RM 3M84'
p886
sba(ibacnet_io
BacnetObj
p887
(dp888
g17
Nsg18
(dp889
g20
S'Binary Output'
p890
sg22
I15
sg23
I4
ssg24
S'RELAY15'
p891
sg26
g797
sg27
S'SPARE'
p892
sba(ibacnet_io
BacnetObj
p893
(dp894
g17
Nsg18
(dp895
g20
S'Binary Output'
p896
sg22
I16
sg23
I4
ssg24
S'RELAY16'
p897
sg26
g797
sg27
S'HOT PROCESS RM 3M86'
p898
sba(ibacnet_io
BacnetObj
p899
(dp900
g17
Nsg18
(dp901
g20
S'Binary Output'
p902
sg22
I17
sg23
I4
ssg24
S'RELAY17'
p903
sg26
g797
sg27
S'HOT PROCESS RM 3M86'
p904
sba(ibacnet_io
BacnetObj
p905
(dp906
g17
Nsg18
(dp907
g20
S'Binary Output'
p908
sg22
I18
sg23
I4
ssg24
S'RELAY18'
p909
sg26
g797
sg27
S'SPARE'
p910
sba(ibacnet_io
BacnetObj
p911
(dp912
g17
Nsg18
(dp913
g20
S'Binary Output'
p914
sg22
I19
sg23
I4
ssg24
S'RELAY19'
p915
sg26
g797
sg27
S'CHASE 3M81'
p916
sba(ibacnet_io
BacnetObj
p917
(dp918
g17
Nsg18
(dp919
g20
S'Binary Output'
p920
sg22
I20
sg23
I4
ssg24
S'RELAY20'
p921
sg26
g797
sg27
S'CHASE 3M8S'
p922
sba(ibacnet_io
BacnetObj
p923
(dp924
g17
Nsg18
(dp925
g20
S'Binary Output'
p926
sg22
I21
sg23
I4
ssg24
S'RELAY21'
p927
sg26
g797
sg27
S'SERVICE 3M91, 3M93, 3M95, 3M97'
p928
sba(ibacnet_io
BacnetObj
p929
(dp930
g17
Nsg18
(dp931
g20
S'Binary Output'
p932
sg22
I22
sg23
I4
ssg24
S'RELAY22'
p933
sg26
g797
sg27
S'SERVICE AISLE RMS 3M91, 3M93, 3M95, 3M97'
p934
sba(ibacnet_io
BacnetObj
p935
(dp936
g17
Nsg18
(dp937
g20
S'Binary Output'
p938
sg22
I23
sg23
I4
ssg24
S'RELAY23'
p939
sg26
g797
sg27
S'SPARE'
p940
sba(ibacnet_io
BacnetObj
p941
(dp942
g17
Nsg18
(dp943
g20
S'Binary Output'
p944
sg22
I24
sg23
I4
ssg24
S'RELAY24'
p945
sg26
g797
sg27
S'LVL 4M PLATFORM AREA'
p946
sba(ibacnet_io
BacnetObj
p947
(dp948
g17
Nsg18
(dp949
g20
S'Binary Output'
p950
sg22
I25
sg23
I4
ssg24
S'RELAY25'
p951
sg26
g797
sg27
S'LVL 4M PLATFORM AREA'
p952
sba(ibacnet_io
BacnetObj
p953
(dp954
g17
Nsg18
(dp955
g20
S'Binary Output'
p956
sg22
I26
sg23
I4
ssg24
S'RELAY26'
p957
sg26
g797
sg27
S'LVL 4M PLATFORM AREA'
p958
sba(ibacnet_io
BacnetObj
p959
(dp960
g17
Nsg18
(dp961
g20
S'Binary Output'
p962
sg22
I27
sg23
I4
ssg24
S'RELAY27'
p963
sg26
g797
sg27
S'SPARE'
p964
sba(ibacnet_io
BacnetObj
p965
(dp966
g17
Nsg18
(dp967
g20
S'Binary Output'
p968
sg22
I28
sg23
I4
ssg24
S'RELAY28'
p969
sg26
g797
sg27
S'SPARE'
p970
sba(ibacnet_io
BacnetObj
p971
(dp972
g17
Nsg18
(dp973
g20
S'Binary Output'
p974
sg22
I29
sg23
I4
ssg24
S'RELAY29'
p975
sg26
g797
sg27
S''
sba(ibacnet_io
BacnetObj
p976
(dp977
g17
Nsg18
(dp978
g20
S'Binary Output'
p979
sg22
I30
sg23
I4
ssg24
S'RELAY30'
p980
sg26
g797
sg27
S''
sba(ibacnet_io
BacnetObj
p981
(dp982
g17
Nsg18
(dp983
g20
S'Binary Output'
p984
sg22
I31
sg23
I4
ssg24
S'RELAY31'
p985
sg26
g797
sg27
S''
sba(ibacnet_io
BacnetObj
p986
(dp987
g17
Nsg18
(dp988
g20
S'Binary Output'
p989
sg22
I32
sg23
I4
ssg24
S'RELAY32'
p990
sg26
g797
sg27
S''
sba(ibacnet_io
BacnetObj
p991
(dp992
g17
Nsg18
(dp993
g20
S'Binary Output'
p994
sg22
I33
sg23
I4
ssg24
S'RELAY33'
p995
sg26
g797
sg27
S''
sba(ibacnet_io
BacnetObj
p996
(dp997
g17
Nsg18
(dp998
g20
S'Binary Output'
p999
sg22
I34
sg23
I4
ssg24
S'RELAY34'
p1000
sg26
g797
sg27
S''
sba(ibacnet_io
BacnetObj
p1001
(dp1002
g17
Nsg18
(dp1003
g20
S'Binary Output'
p1004
sg22
I35
sg23
I4
ssg24
S'RELAY35'
p1005
sg26
g797
sg27
S''
sba(ibacnet_io
BacnetObj
p1006
(dp1007
g17
Nsg18
(dp1008
g20
S'Binary Output'
p1009
sg22
I36
sg23
I4
ssg24
S'RELAY36'
p1010
sg26
g797
sg27
S''
sba(ibacnet_io
BacnetObj
p1011
(dp1012
g17
Nsg18
(dp1013
g20
S'Binary Output'
p1014
sg22
I37
sg23
I4
ssg24
S'RELAY37'
p1015
sg26
g797
sg27
S''
sba(ibacnet_io
BacnetObj
p1016
(dp1017
g17
Nsg18
(dp1018
g20
S'Binary Output'
p1019
sg22
I38
sg23
I4
ssg24
S'RELAY38'
p1020
sg26
g797
sg27
S''
sba(ibacnet_io
BacnetObj
p1021
(dp1022
g17
Nsg18
(dp1023
g20
S'Binary Output'
p1024
sg22
I39
sg23
I4
ssg24
S'RELAY39'
p1025
sg26
g797
sg27
S''
sba(ibacnet_io
BacnetObj
p1026
(dp1027
g17
Nsg18
(dp1028
g20
S'Binary Output'
p1029
sg22
I40
sg23
I4
ssg24
S'RELAY40'
p1030
sg26
g797
sg27
S''
sba(ibacnet_io
BacnetObj
p1031
(dp1032
g17
Nsg18
(dp1033
g20
S'Binary Output'
p1034
sg22
I41
sg23
I4
ssg24
S'RELAY41'
p1035
sg26
g797
sg27
S''
sba(ibacnet_io
BacnetObj
p1036
(dp1037
g17
Nsg18
(dp1038
g20
S'Binary Output'
p1039
sg22
I42
sg23
I4
ssg24
S'RELAY42'
p1040
sg26
g797
sg27
S''
sba(ibacnet_io
BacnetObj
p1041
(dp1042
g17
Nsg18
(dp1043
g20
S'Binary Output'
p1044
sg22
I43
sg23
I4
ssg24
S'RELAY43'
p1045
sg26
g797
sg27
S''
sba(ibacnet_io
BacnetObj
p1046
(dp1047
g17
Nsg18
(dp1048
g20
S'Binary Output'
p1049
sg22
I44
sg23
I4
ssg24
S'RELAY44'
p1050
sg26
g797
sg27
S''
sba(ibacnet_io
BacnetObj
p1051
(dp1052
g17
Nsg18
(dp1053
g20
S'Binary Output'
p1054
sg22
I45
sg23
I4
ssg24
S'RELAY45'
p1055
sg26
g797
sg27
S''
sba(ibacnet_io
BacnetObj
p1056
(dp1057
g17
Nsg18
(dp1058
g20
S'Binary Output'
p1059
sg22
I46
sg23
I4
ssg24
S'RELAY46'
p1060
sg26
g797
sg27
S''
sba(ibacnet_io
BacnetObj
p1061
(dp1062
g17
Nsg18
(dp1063
g20
S'Binary Output'
p1064
sg22
I47
sg23
I4
ssg24
S'RELAY47'
p1065
sg26
g797
sg27
S''
sba(ibacnet_io
BacnetObj
p1066
(dp1067
g17
Nsg18
(dp1068
g20
S'Binary Output'
p1069
sg22
I48
sg23
I4
ssg24
S'RELAY48'
p1070
sg26
g797
sg27
S''
sba(ibacnet_io
BacnetObj
p1071
(dp1072
g17
Nsg18
(dp1073
g20
S'Device'
p1074
sg22
I86006
sg23
I8
ssg24
S'WS86006'
p1075
sg26
g797
sg27
S'LCPM4- Nano 3M'
p1076
sbasg24
S'WS86006'
p1077
sg27
S'LCPM4- Nano 3M'
p1078
sba(ibacnet_io
BacnetDev
p1079
(dp1080
g4
(dp1081
g6
(lp1082
I128
aI32
aI247
aI215
aI186
aI192
asg8
I1500
sg9
(lp1083
I0
aI0
aI0
aI0
aI33
aI159
asg11
I86
sg12
I86007
ssg13
(lp1084
(ibacnet_io
BacnetObj
p1085
(dp1086
g17
Nsg18
(dp1087
g20
S'Binary Output'
p1088
sg22
I1
sg23
I4
ssg24
S'RELAY01'
p1089
sg26
g1079
sg27
S'CORRIDOR (FIXTURES TYPE F8)'
p1090
sba(ibacnet_io
BacnetObj
p1091
(dp1092
g17
Nsg18
(dp1093
g20
S'Binary Output'
p1094
sg22
I2
sg23
I4
ssg24
S'RELAY02'
p1095
sg26
g1079
sg27
S'CORE AREAS'
p1096
sba(ibacnet_io
BacnetObj
p1097
(dp1098
g17
Nsg18
(dp1099
g20
S'Binary Output'
p1100
sg22
I3
sg23
I4
ssg24
S'RELAY03'
p1101
sg26
g1079
sg27
S'OPEN OFFICES 460'
p1102
sba(ibacnet_io
BacnetObj
p1103
(dp1104
g17
Nsg18
(dp1105
g20
S'Binary Output'
p1106
sg22
I4
sg23
I4
ssg24
S'RELAY04'
p1107
sg26
g1079
sg27
S'OPEN OFFICES 460'
p1108
sba(ibacnet_io
BacnetObj
p1109
(dp1110
g17
Nsg18
(dp1111
g20
S'Binary Output'
p1112
sg22
I5
sg23
I4
ssg24
S'RELAY05'
p1113
sg26
g1079
sg27
S'OPEN OFFICES 466, 468'
p1114
sba(ibacnet_io
BacnetObj
p1115
(dp1116
g17
Nsg18
(dp1117
g20
S'Binary Output'
p1118
sg22
I6
sg23
I4
ssg24
S'RELAY06'
p1119
sg26
g1079
sg27
S'OPEN OFFICES 466, 468'
p1120
sba(ibacnet_io
BacnetObj
p1121
(dp1122
g17
Nsg18
(dp1123
g20
S'Binary Output'
p1124
sg22
I7
sg23
I4
ssg24
S'RELAY07'
p1125
sg26
g1079
sg27
S'OPEN OFFICES 450'
p1126
sba(ibacnet_io
BacnetObj
p1127
(dp1128
g17
Nsg18
(dp1129
g20
S'Binary Output'
p1130
sg22
I8
sg23
I4
ssg24
S'RELAY08'
p1131
sg26
g1079
sg27
S'OPEN OFFICES 450'
p1132
sba(ibacnet_io
BacnetObj
p1133
(dp1134
g17
Nsg18
(dp1135
g20
S'Binary Output'
p1136
sg22
I9
sg23
I4
ssg24
S'RELAY09'
p1137
sg26
g1079
sg27
S'OPEN OFFICES 440'
p1138
sba(ibacnet_io
BacnetObj
p1139
(dp1140
g17
Nsg18
(dp1141
g20
S'Binary Output'
p1142
sg22
I10
sg23
I4
ssg24
S'RELAY10'
p1143
sg26
g1079
sg27
S'OPEN OFFICES 440'
p1144
sba(ibacnet_io
BacnetObj
p1145
(dp1146
g17
Nsg18
(dp1147
g20
S'Binary Output'
p1148
sg22
I11
sg23
I4
ssg24
S'RELAY11'
p1149
sg26
g1079
sg27
S'OPEN OFFICES 432, 434'
p1150
sba(ibacnet_io
BacnetObj
p1151
(dp1152
g17
Nsg18
(dp1153
g20
S'Binary Output'
p1154
sg22
I12
sg23
I4
ssg24
S'RELAY12'
p1155
sg26
g1079
sg27
S'OPEN OFFICES 432, 434'
p1156
sba(ibacnet_io
BacnetObj
p1157
(dp1158
g17
Nsg18
(dp1159
g20
S'Binary Output'
p1160
sg22
I13
sg23
I4
ssg24
S'RELAY13'
p1161
sg26
g1079
sg27
S'PANTRY 432 - TASK LIGHT'
p1162
sba(ibacnet_io
BacnetObj
p1163
(dp1164
g17
Nsg18
(dp1165
g20
S'Binary Output'
p1166
sg22
I14
sg23
I4
ssg24
S'RELAY14'
p1167
sg26
g1079
sg27
S'SPARE'
p1168
sba(ibacnet_io
BacnetObj
p1169
(dp1170
g17
Nsg18
(dp1171
g20
S'Binary Output'
p1172
sg22
I15
sg23
I4
ssg24
S'RELAY15'
p1173
sg26
g1079
sg27
S'SPARE'
p1174
sba(ibacnet_io
BacnetObj
p1175
(dp1176
g17
Nsg18
(dp1177
g20
S'Binary Output'
p1178
sg22
I16
sg23
I4
ssg24
S'RELAY16'
p1179
sg26
g1079
sg27
S'SPARE'
p1180
sba(ibacnet_io
BacnetObj
p1181
(dp1182
g17
Nsg18
(dp1183
g20
S'Binary Output'
p1184
sg22
I17
sg23
I4
ssg24
S'RELAY17'
p1185
sg26
g1079
sg27
S'SPARE'
p1186
sba(ibacnet_io
BacnetObj
p1187
(dp1188
g17
Nsg18
(dp1189
g20
S'Binary Output'
p1190
sg22
I18
sg23
I4
ssg24
S'RELAY18'
p1191
sg26
g1079
sg27
S'SPARE'
p1192
sba(ibacnet_io
BacnetObj
p1193
(dp1194
g17
Nsg18
(dp1195
g20
S'Binary Output'
p1196
sg22
I19
sg23
I4
ssg24
S'RELAY19'
p1197
sg26
g1079
sg27
S'SPARE'
p1198
sba(ibacnet_io
BacnetObj
p1199
(dp1200
g17
Nsg18
(dp1201
g20
S'Binary Output'
p1202
sg22
I20
sg23
I4
ssg24
S'RELAY20'
p1203
sg26
g1079
sg27
S'SPARE'
p1204
sba(ibacnet_io
BacnetObj
p1205
(dp1206
g17
Nsg18
(dp1207
g20
S'Binary Output'
p1208
sg22
I21
sg23
I4
ssg24
S'RELAY21'
p1209
sg26
g1079
sg27
S'SPARE'
p1210
sba(ibacnet_io
BacnetObj
p1211
(dp1212
g17
Nsg18
(dp1213
g20
S'Binary Output'
p1214
sg22
I22
sg23
I4
ssg24
S'RELAY22'
p1215
sg26
g1079
sg27
S'SPARE'
p1216
sba(ibacnet_io
BacnetObj
p1217
(dp1218
g17
Nsg18
(dp1219
g20
S'Binary Output'
p1220
sg22
I23
sg23
I4
ssg24
S'RELAY23'
p1221
sg26
g1079
sg27
S'SPARE'
p1222
sba(ibacnet_io
BacnetObj
p1223
(dp1224
g17
Nsg18
(dp1225
g20
S'Binary Output'
p1226
sg22
I24
sg23
I4
ssg24
S'RELAY24'
p1227
sg26
g1079
sg27
S'SPARE'
p1228
sba(ibacnet_io
BacnetObj
p1229
(dp1230
g17
Nsg18
(dp1231
g20
S'Device'
p1232
sg22
I86007
sg23
I8
ssg24
S'WS86007'
p1233
sg26
g1079
sg27
S'RP4'
p1234
sbasg24
S'WS86007'
p1235
sg27
S'RP4'
p1236
sba(ibacnet_io
BacnetDev
p1237
(dp1238
g4
(dp1239
g6
(lp1240
I128
aI32
aI247
aI215
aI186
aI192
asg8
I1500
sg9
(lp1241
I0
aI0
aI0
aI0
aI33
aI160
asg11
I86
sg12
I86008
ssg13
(lp1242
(ibacnet_io
BacnetObj
p1243
(dp1244
g17
Nsg18
(dp1245
g20
S'Binary Output'
p1246
sg22
I1
sg23
I4
ssg24
S'RELAY01'
p1247
sg26
g1237
sg27
S'CORE AREAS'
p1248
sba(ibacnet_io
BacnetObj
p1249
(dp1250
g17
Nsg18
(dp1251
g20
S'Binary Output'
p1252
sg22
I2
sg23
I4
ssg24
S'RELAY02'
p1253
sg26
g1237
sg27
S'OPEN OFFICES 566,568'
p1254
sba(ibacnet_io
BacnetObj
p1255
(dp1256
g17
Nsg18
(dp1257
g20
S'Binary Output'
p1258
sg22
I3
sg23
I4
ssg24
S'RELAY03'
p1259
sg26
g1237
sg27
S'OPEN OFFICES 566,568'
p1260
sba(ibacnet_io
BacnetObj
p1261
(dp1262
g17
Nsg18
(dp1263
g20
S'Binary Output'
p1264
sg22
I4
sg23
I4
ssg24
S'RELAY04'
p1265
sg26
g1237
sg27
S'OPEN OFFICE 550'
p1266
sba(ibacnet_io
BacnetObj
p1267
(dp1268
g17
Nsg18
(dp1269
g20
S'Binary Output'
p1270
sg22
I5
sg23
I4
ssg24
S'RELAY05'
p1271
sg26
g1237
sg27
S'OPEN OFFICE 550'
p1272
sba(ibacnet_io
BacnetObj
p1273
(dp1274
g17
Nsg18
(dp1275
g20
S'Binary Output'
p1276
sg22
I6
sg23
I4
ssg24
S'RELAY06'
p1277
sg26
g1237
sg27
S'MICROFAB OFFICE 520'
p1278
sba(ibacnet_io
BacnetObj
p1279
(dp1280
g17
Nsg18
(dp1281
g20
S'Binary Output'
p1282
sg22
I7
sg23
I4
ssg24
S'RELAY07'
p1283
sg26
g1237
sg27
S'MICROFAB OFFICE 520'
p1284
sba(ibacnet_io
BacnetObj
p1285
(dp1286
g17
Nsg18
(dp1287
g20
S'Binary Output'
p1288
sg22
I8
sg23
I4
ssg24
S'RELAY08'
p1289
sg26
g1237
sg27
S'OPEN OFFICE 548'
p1290
sba(ibacnet_io
BacnetObj
p1291
(dp1292
g17
Nsg18
(dp1293
g20
S'Binary Output'
p1294
sg22
I9
sg23
I4
ssg24
S'RELAY09'
p1295
sg26
g1237
sg27
S'OPEN OFFICE 548'
p1296
sba(ibacnet_io
BacnetObj
p1297
(dp1298
g17
Nsg18
(dp1299
g20
S'Binary Output'
p1300
sg22
I10
sg23
I4
ssg24
S'RELAY10'
p1301
sg26
g1237
sg27
S'OPEN OFFICE 532'
p1302
sba(ibacnet_io
BacnetObj
p1303
(dp1304
g17
Nsg18
(dp1305
g20
S'Binary Output'
p1306
sg22
I11
sg23
I4
ssg24
S'RELAY11'
p1307
sg26
g1237
sg27
S'OPEN OFFICE 532'
p1308
sba(ibacnet_io
BacnetObj
p1309
(dp1310
g17
Nsg18
(dp1311
g20
S'Binary Output'
p1312
sg22
I12
sg23
I4
ssg24
S'RELAY12'
p1313
sg26
g1237
sg27
S'OPEN OFFICE 532'
p1314
sba(ibacnet_io
BacnetObj
p1315
(dp1316
g17
Nsg18
(dp1317
g20
S'Binary Output'
p1318
sg22
I13
sg23
I4
ssg24
S'RELAY13'
p1319
sg26
g1237
sg27
S'OPEN OFFICE 532'
p1320
sba(ibacnet_io
BacnetObj
p1321
(dp1322
g17
Nsg18
(dp1323
g20
S'Binary Output'
p1324
sg22
I14
sg23
I4
ssg24
S'RELAY14'
p1325
sg26
g1237
sg27
S'PANTRY 536 - TASK LIGHT'
p1326
sba(ibacnet_io
BacnetObj
p1327
(dp1328
g17
Nsg18
(dp1329
g20
S'Binary Output'
p1330
sg22
I15
sg23
I4
ssg24
S'RELAY15'
p1331
sg26
g1237
sg27
S'SPARE'
p1332
sba(ibacnet_io
BacnetObj
p1333
(dp1334
g17
Nsg18
(dp1335
g20
S'Binary Output'
p1336
sg22
I16
sg23
I4
ssg24
S'RELAY16'
p1337
sg26
g1237
sg27
S'SPARE'
p1338
sba(ibacnet_io
BacnetObj
p1339
(dp1340
g17
Nsg18
(dp1341
g20
S'Binary Output'
p1342
sg22
I17
sg23
I4
ssg24
S'RELAY17'
p1343
sg26
g1237
sg27
S'SPARE'
p1344
sba(ibacnet_io
BacnetObj
p1345
(dp1346
g17
Nsg18
(dp1347
g20
S'Binary Output'
p1348
sg22
I18
sg23
I4
ssg24
S'RELAY18'
p1349
sg26
g1237
sg27
S'SPARE'
p1350
sba(ibacnet_io
BacnetObj
p1351
(dp1352
g17
Nsg18
(dp1353
g20
S'Binary Output'
p1354
sg22
I19
sg23
I4
ssg24
S'RELAY19'
p1355
sg26
g1237
sg27
S'SPARE'
p1356
sba(ibacnet_io
BacnetObj
p1357
(dp1358
g17
Nsg18
(dp1359
g20
S'Binary Output'
p1360
sg22
I20
sg23
I4
ssg24
S'RELAY20'
p1361
sg26
g1237
sg27
S'SPARE'
p1362
sba(ibacnet_io
BacnetObj
p1363
(dp1364
g17
Nsg18
(dp1365
g20
S'Binary Output'
p1366
sg22
I21
sg23
I4
ssg24
S'RELAY21'
p1367
sg26
g1237
sg27
S'SPARE'
p1368
sba(ibacnet_io
BacnetObj
p1369
(dp1370
g17
Nsg18
(dp1371
g20
S'Binary Output'
p1372
sg22
I22
sg23
I4
ssg24
S'RELAY22'
p1373
sg26
g1237
sg27
S'SPARE'
p1374
sba(ibacnet_io
BacnetObj
p1375
(dp1376
g17
Nsg18
(dp1377
g20
S'Binary Output'
p1378
sg22
I23
sg23
I4
ssg24
S'RELAY23'
p1379
sg26
g1237
sg27
S'SPARE'
p1380
sba(ibacnet_io
BacnetObj
p1381
(dp1382
g17
Nsg18
(dp1383
g20
S'Binary Output'
p1384
sg22
I24
sg23
I4
ssg24
S'RELAY24'
p1385
sg26
g1237
sg27
S'SPARE'
p1386
sba(ibacnet_io
BacnetObj
p1387
(dp1388
g17
Nsg18
(dp1389
g20
S'Device'
p1390
sg22
I86008
sg23
I8
ssg24
S'WS86008'
p1391
sg26
g1237
sg27
S'RP5'
p1392
sbasg24
S'WS86008'
p1393
sg27
S'RP5'
p1394
sba(ibacnet_io
BacnetDev
p1395
(dp1396
g4
(dp1397
g6
(lp1398
I128
aI32
aI247
aI215
aI186
aI192
asg8
I1500
sg9
(lp1399
I0
aI0
aI0
aI0
aI33
aI161
asg11
I86
sg12
I86009
ssg13
(lp1400
(ibacnet_io
BacnetObj
p1401
(dp1402
g17
Nsg18
(dp1403
g20
S'Binary Output'
p1404
sg22
I1
sg23
I4
ssg24
S'RELAY01'
p1405
sg26
g1395
sg27
S'CHASE 581'
p1406
sba(ibacnet_io
BacnetObj
p1407
(dp1408
g17
Nsg18
(dp1409
g20
S'Binary Output'
p1410
sg22
I2
sg23
I4
ssg24
S'RELAY02'
p1411
sg26
g1395
sg27
S'CHASE 583'
p1412
sba(ibacnet_io
BacnetObj
p1413
(dp1414
g17
Nsg18
(dp1415
g20
S'Binary Output'
p1416
sg22
I3
sg23
I4
ssg24
S'RELAY03'
p1417
sg26
g1395
sg27
S'CHASE 585'
p1418
sba(ibacnet_io
BacnetObj
p1419
(dp1420
g17
Nsg18
(dp1421
g20
S'Binary Output'
p1422
sg22
I4
sg23
I4
ssg24
S'RELAY04'
p1423
sg26
g1395
sg27
S'MAIN SERVICE AISLE  593, 597'
p1424
sba(ibacnet_io
BacnetObj
p1425
(dp1426
g17
Nsg18
(dp1427
g20
S'Binary Output'
p1428
sg22
I5
sg23
I4
ssg24
S'RELAY05'
p1429
sg26
g1395
sg27
S'MAIN SERVICE AISLE  593, 597'
p1430
sba(ibacnet_io
BacnetObj
p1431
(dp1432
g17
Nsg18
(dp1433
g20
S'Binary Output'
p1434
sg22
I6
sg23
I4
ssg24
S'RELAY06'
p1435
sg26
g1395
sg27
S'SPARE'
p1436
sba(ibacnet_io
BacnetObj
p1437
(dp1438
g17
Nsg18
(dp1439
g20
S'Binary Output'
p1440
sg22
I7
sg23
I4
ssg24
S'RELAY07'
p1441
sg26
g1395
sg27
S'GOWNING 580'
p1442
sba(ibacnet_io
BacnetObj
p1443
(dp1444
g17
Nsg18
(dp1445
g20
S'Binary Output'
p1446
sg22
I8
sg23
I4
ssg24
S'RELAY08'
p1447
sg26
g1395
sg27
S'GOWNING 580'
p1448
sba(ibacnet_io
BacnetObj
p1449
(dp1450
g17
Nsg18
(dp1451
g20
S'Binary Output'
p1452
sg22
I9
sg23
I4
ssg24
S'RELAY09'
p1453
sg26
g1395
sg27
S'SPARE'
p1454
sba(ibacnet_io
BacnetObj
p1455
(dp1456
g17
Nsg18
(dp1457
g20
S'Binary Output'
p1458
sg22
I10
sg23
I4
ssg24
S'RELAY10'
p1459
sg26
g1395
sg27
S'PAINT CLEAN/POLISHING 587'
p1460
sba(ibacnet_io
BacnetObj
p1461
(dp1462
g17
Nsg18
(dp1463
g20
S'Binary Output'
p1464
sg22
I11
sg23
I4
ssg24
S'RELAY11'
p1465
sg26
g1395
sg27
S'PAINT CLEAN/POLISHING 587'
p1466
sba(ibacnet_io
BacnetObj
p1467
(dp1468
g17
Nsg18
(dp1469
g20
S'Binary Output'
p1470
sg22
I12
sg23
I4
ssg24
S'RELAY12'
p1471
sg26
g1395
sg27
S'SPARE'
p1472
sba(ibacnet_io
BacnetObj
p1473
(dp1474
g17
Nsg18
(dp1475
g20
S'Binary Output'
p1476
sg22
I13
sg23
I4
ssg24
S'RELAY13'
p1477
sg26
g1395
sg27
S'THIN FILMS/ETCH SPECIAL 582'
p1478
sba(ibacnet_io
BacnetObj
p1479
(dp1480
g17
Nsg18
(dp1481
g20
S'Binary Output'
p1482
sg22
I14
sg23
I4
ssg24
S'RELAY14'
p1483
sg26
g1395
sg27
S'THIN FILMS/ETCH SPECIAL 582'
p1484
sba(ibacnet_io
BacnetObj
p1485
(dp1486
g17
Nsg18
(dp1487
g20
S'Binary Output'
p1488
sg22
I15
sg23
I4
ssg24
S'RELAY15'
p1489
sg26
g1395
sg27
S'SPARE'
p1490
sba(ibacnet_io
BacnetObj
p1491
(dp1492
g17
Nsg18
(dp1493
g20
S'Binary Output'
p1494
sg22
I16
sg23
I4
ssg24
S'RELAY16'
p1495
sg26
g1395
sg27
S'RE/DRY ETCH 584'
p1496
sba(ibacnet_io
BacnetObj
p1497
(dp1498
g17
Nsg18
(dp1499
g20
S'Binary Output'
p1500
sg22
I17
sg23
I4
ssg24
S'RELAY17'
p1501
sg26
g1395
sg27
S'RE/DRY ETCH 584'
p1502
sba(ibacnet_io
BacnetObj
p1503
(dp1504
g17
Nsg18
(dp1505
g20
S'Binary Output'
p1506
sg22
I18
sg23
I4
ssg24
S'RELAY18'
p1507
sg26
g1395
sg27
S'SPARE'
p1508
sba(ibacnet_io
BacnetObj
p1509
(dp1510
g17
Nsg18
(dp1511
g20
S'Binary Output'
p1512
sg22
I19
sg23
I4
ssg24
S'RELAY19'
p1513
sg26
g1395
sg27
S'THIN FILMS 586'
p1514
sba(ibacnet_io
BacnetObj
p1515
(dp1516
g17
Nsg18
(dp1517
g20
S'Binary Output'
p1518
sg22
I20
sg23
I4
ssg24
S'RELAY20'
p1519
sg26
g1395
sg27
S'THIN FILMS 586'
p1520
sba(ibacnet_io
BacnetObj
p1521
(dp1522
g17
Nsg18
(dp1523
g20
S'Binary Output'
p1524
sg22
I21
sg23
I4
ssg24
S'RELAY21'
p1525
sg26
g1395
sg27
S'SPARE'
p1526
sba(ibacnet_io
BacnetObj
p1527
(dp1528
g17
Nsg18
(dp1529
g20
S'Binary Output'
p1530
sg22
I22
sg23
I4
ssg24
S'RELAY22'
p1531
sg26
g1395
sg27
S'LVL 6 PLATFORM AREA'
p1532
sba(ibacnet_io
BacnetObj
p1533
(dp1534
g17
Nsg18
(dp1535
g20
S'Binary Output'
p1536
sg22
I23
sg23
I4
ssg24
S'RELAY23'
p1537
sg26
g1395
sg27
S'LVL 6 PLATFORM AREA'
p1538
sba(ibacnet_io
BacnetObj
p1539
(dp1540
g17
Nsg18
(dp1541
g20
S'Binary Output'
p1542
sg22
I24
sg23
I4
ssg24
S'RELAY24'
p1543
sg26
g1395
sg27
S'SPARE'
p1544
sba(ibacnet_io
BacnetObj
p1545
(dp1546
g17
Nsg18
(dp1547
g20
S'Binary Output'
p1548
sg22
I25
sg23
I4
ssg24
S'RELAY25'
p1549
sg26
g1395
sg27
S'MAIN SERVICE AISLE WEST'
p1550
sba(ibacnet_io
BacnetObj
p1551
(dp1552
g17
Nsg18
(dp1553
g20
S'Binary Output'
p1554
sg22
I26
sg23
I4
ssg24
S'RELAY26'
p1555
sg26
g1395
sg27
S'MAIN SERVICE AISLE WEST'
p1556
sba(ibacnet_io
BacnetObj
p1557
(dp1558
g17
Nsg18
(dp1559
g20
S'Binary Output'
p1560
sg22
I27
sg23
I4
ssg24
S'RELAY27'
p1561
sg26
g1395
sg27
S'SPARE'
p1562
sba(ibacnet_io
BacnetObj
p1563
(dp1564
g17
Nsg18
(dp1565
g20
S'Binary Output'
p1566
sg22
I28
sg23
I4
ssg24
S'RELAY28'
p1567
sg26
g1395
sg27
S'SPARE'
p1568
sba(ibacnet_io
BacnetObj
p1569
(dp1570
g17
Nsg18
(dp1571
g20
S'Binary Output'
p1572
sg22
I29
sg23
I4
ssg24
S'RELAY29'
p1573
sg26
g1395
sg27
S'SPARE'
p1574
sba(ibacnet_io
BacnetObj
p1575
(dp1576
g17
Nsg18
(dp1577
g20
S'Binary Output'
p1578
sg22
I30
sg23
I4
ssg24
S'RELAY30'
p1579
sg26
g1395
sg27
S'SPARE'
p1580
sba(ibacnet_io
BacnetObj
p1581
(dp1582
g17
Nsg18
(dp1583
g20
S'Binary Output'
p1584
sg22
I31
sg23
I4
ssg24
S'RELAY31'
p1585
sg26
g1395
sg27
S'SPARE'
p1586
sba(ibacnet_io
BacnetObj
p1587
(dp1588
g17
Nsg18
(dp1589
g20
S'Binary Output'
p1590
sg22
I32
sg23
I4
ssg24
S'RELAY32'
p1591
sg26
g1395
sg27
S'SPARE'
p1592
sba(ibacnet_io
BacnetObj
p1593
(dp1594
g17
Nsg18
(dp1595
g20
S'Binary Output'
p1596
sg22
I33
sg23
I4
ssg24
S'RELAY33'
p1597
sg26
g1395
sg27
S''
sba(ibacnet_io
BacnetObj
p1598
(dp1599
g17
Nsg18
(dp1600
g20
S'Binary Output'
p1601
sg22
I34
sg23
I4
ssg24
S'RELAY34'
p1602
sg26
g1395
sg27
S''
sba(ibacnet_io
BacnetObj
p1603
(dp1604
g17
Nsg18
(dp1605
g20
S'Binary Output'
p1606
sg22
I35
sg23
I4
ssg24
S'RELAY35'
p1607
sg26
g1395
sg27
S''
sba(ibacnet_io
BacnetObj
p1608
(dp1609
g17
Nsg18
(dp1610
g20
S'Binary Output'
p1611
sg22
I36
sg23
I4
ssg24
S'RELAY36'
p1612
sg26
g1395
sg27
S''
sba(ibacnet_io
BacnetObj
p1613
(dp1614
g17
Nsg18
(dp1615
g20
S'Binary Output'
p1616
sg22
I37
sg23
I4
ssg24
S'RELAY37'
p1617
sg26
g1395
sg27
S''
sba(ibacnet_io
BacnetObj
p1618
(dp1619
g17
Nsg18
(dp1620
g20
S'Binary Output'
p1621
sg22
I38
sg23
I4
ssg24
S'RELAY38'
p1622
sg26
g1395
sg27
S''
sba(ibacnet_io
BacnetObj
p1623
(dp1624
g17
Nsg18
(dp1625
g20
S'Binary Output'
p1626
sg22
I39
sg23
I4
ssg24
S'RELAY39'
p1627
sg26
g1395
sg27
S''
sba(ibacnet_io
BacnetObj
p1628
(dp1629
g17
Nsg18
(dp1630
g20
S'Binary Output'
p1631
sg22
I40
sg23
I4
ssg24
S'RELAY40'
p1632
sg26
g1395
sg27
S''
sba(ibacnet_io
BacnetObj
p1633
(dp1634
g17
Nsg18
(dp1635
g20
S'Binary Output'
p1636
sg22
I41
sg23
I4
ssg24
S'RELAY41'
p1637
sg26
g1395
sg27
S''
sba(ibacnet_io
BacnetObj
p1638
(dp1639
g17
Nsg18
(dp1640
g20
S'Binary Output'
p1641
sg22
I42
sg23
I4
ssg24
S'RELAY42'
p1642
sg26
g1395
sg27
S''
sba(ibacnet_io
BacnetObj
p1643
(dp1644
g17
Nsg18
(dp1645
g20
S'Binary Output'
p1646
sg22
I43
sg23
I4
ssg24
S'RELAY43'
p1647
sg26
g1395
sg27
S''
sba(ibacnet_io
BacnetObj
p1648
(dp1649
g17
Nsg18
(dp1650
g20
S'Binary Output'
p1651
sg22
I44
sg23
I4
ssg24
S'RELAY44'
p1652
sg26
g1395
sg27
S''
sba(ibacnet_io
BacnetObj
p1653
(dp1654
g17
Nsg18
(dp1655
g20
S'Binary Output'
p1656
sg22
I45
sg23
I4
ssg24
S'RELAY45'
p1657
sg26
g1395
sg27
S''
sba(ibacnet_io
BacnetObj
p1658
(dp1659
g17
Nsg18
(dp1660
g20
S'Binary Output'
p1661
sg22
I46
sg23
I4
ssg24
S'RELAY46'
p1662
sg26
g1395
sg27
S''
sba(ibacnet_io
BacnetObj
p1663
(dp1664
g17
Nsg18
(dp1665
g20
S'Binary Output'
p1666
sg22
I47
sg23
I4
ssg24
S'RELAY47'
p1667
sg26
g1395
sg27
S''
sba(ibacnet_io
BacnetObj
p1668
(dp1669
g17
Nsg18
(dp1670
g20
S'Binary Output'
p1671
sg22
I48
sg23
I4
ssg24
S'RELAY48'
p1672
sg26
g1395
sg27
S''
sba(ibacnet_io
BacnetObj
p1673
(dp1674
g17
Nsg18
(dp1675
g20
S'Device'
p1676
sg22
I86009
sg23
I8
ssg24
S'WS86009'
p1677
sg26
g1395
sg27
S'LCPM6- Nanolab 5M'
p1678
sbasg24
S'WS86009'
p1679
sg27
S'LCPM6- Nanolab 5M'
p1680
sba(ibacnet_io
BacnetDev
p1681
(dp1682
g4
(dp1683
g6
(lp1684
I128
aI32
aI247
aI215
aI186
aI192
asg8
I1500
sg9
(lp1685
I0
aI0
aI0
aI0
aI33
aI162
asg11
I86
sg12
I86010
ssg13
(lp1686
(ibacnet_io
BacnetObj
p1687
(dp1688
g17
Nsg18
(dp1689
g20
S'Binary Output'
p1690
sg22
I1
sg23
I4
ssg24
S'RELAY01'
p1691
sg26
g1681
sg27
S'CORE AREAS'
p1692
sba(ibacnet_io
BacnetObj
p1693
(dp1694
g17
Nsg18
(dp1695
g20
S'Binary Output'
p1696
sg22
I2
sg23
I4
ssg24
S'RELAY02'
p1697
sg26
g1681
sg27
S'OPEN RESEARCH'
p1698
sba(ibacnet_io
BacnetObj
p1699
(dp1700
g17
Nsg18
(dp1701
g20
S'Binary Output'
p1702
sg22
I3
sg23
I4
ssg24
S'RELAY03'
p1703
sg26
g1681
sg27
S'OPEN RESEARC'
p1704
sba(ibacnet_io
BacnetObj
p1705
(dp1706
g17
Nsg18
(dp1707
g20
S'Binary Output'
p1708
sg22
I4
sg23
I4
ssg24
S'RELAY04'
p1709
sg26
g1681
sg27
S'BALCONY'
p1710
sba(ibacnet_io
BacnetObj
p1711
(dp1712
g17
Nsg18
(dp1713
g20
S'Binary Output'
p1714
sg22
I5
sg23
I4
ssg24
S'RELAY05'
p1715
sg26
g1681
sg27
S'TASK LIGHTS'
p1716
sba(ibacnet_io
BacnetObj
p1717
(dp1718
g17
Nsg18
(dp1719
g20
S'Binary Output'
p1720
sg22
I6
sg23
I4
ssg24
S'RELAY06'
p1721
sg26
g1681
sg27
S'SPARE'
p1722
sba(ibacnet_io
BacnetObj
p1723
(dp1724
g17
Nsg18
(dp1725
g20
S'Binary Output'
p1726
sg22
I7
sg23
I4
ssg24
S'RELAY07'
p1727
sg26
g1681
sg27
S'SPARE'
p1728
sba(ibacnet_io
BacnetObj
p1729
(dp1730
g17
Nsg18
(dp1731
g20
S'Binary Output'
p1732
sg22
I8
sg23
I4
ssg24
S'RELAY08'
p1733
sg26
g1681
sg27
S'SPARE'
p1734
sba(ibacnet_io
BacnetObj
p1735
(dp1736
g17
Nsg18
(dp1737
g20
S'Binary Output'
p1738
sg22
I9
sg23
I4
ssg24
S'RELAY09'
p1739
sg26
g1681
sg27
S'SPARE'
p1740
sba(ibacnet_io
BacnetObj
p1741
(dp1742
g17
Nsg18
(dp1743
g20
S'Binary Output'
p1744
sg22
I10
sg23
I4
ssg24
S'RELAY10'
p1745
sg26
g1681
sg27
S'SPARE'
p1746
sba(ibacnet_io
BacnetObj
p1747
(dp1748
g17
Nsg18
(dp1749
g20
S'Binary Output'
p1750
sg22
I11
sg23
I4
ssg24
S'RELAY11'
p1751
sg26
g1681
sg27
S'SPARE'
p1752
sba(ibacnet_io
BacnetObj
p1753
(dp1754
g17
Nsg18
(dp1755
g20
S'Binary Output'
p1756
sg22
I12
sg23
I4
ssg24
S'RELAY12'
p1757
sg26
g1681
sg27
S'SPARE'
p1758
sba(ibacnet_io
BacnetObj
p1759
(dp1760
g17
Nsg18
(dp1761
g20
S'Binary Output'
p1762
sg22
I13
sg23
I4
ssg24
S'RELAY13'
p1763
sg26
g1681
sg27
S'SPARE'
p1764
sba(ibacnet_io
BacnetObj
p1765
(dp1766
g17
Nsg18
(dp1767
g20
S'Binary Output'
p1768
sg22
I14
sg23
I4
ssg24
S'RELAY14'
p1769
sg26
g1681
sg27
S'SPARE'
p1770
sba(ibacnet_io
BacnetObj
p1771
(dp1772
g17
Nsg18
(dp1773
g20
S'Binary Output'
p1774
sg22
I15
sg23
I4
ssg24
S'RELAY15'
p1775
sg26
g1681
sg27
S'SPARE'
p1776
sba(ibacnet_io
BacnetObj
p1777
(dp1778
g17
Nsg18
(dp1779
g20
S'Binary Output'
p1780
sg22
I16
sg23
I4
ssg24
S'RELAY16'
p1781
sg26
g1681
sg27
S'SPARE'
p1782
sba(ibacnet_io
BacnetObj
p1783
(dp1784
g17
Nsg18
(dp1785
g20
S'Binary Output'
p1786
sg22
I17
sg23
I4
ssg24
S'RELAY17'
p1787
sg26
g1681
sg27
S'SPARE'
p1788
sba(ibacnet_io
BacnetObj
p1789
(dp1790
g17
Nsg18
(dp1791
g20
S'Binary Output'
p1792
sg22
I18
sg23
I4
ssg24
S'RELAY18'
p1793
sg26
g1681
sg27
S'SPARE'
p1794
sba(ibacnet_io
BacnetObj
p1795
(dp1796
g17
Nsg18
(dp1797
g20
S'Binary Output'
p1798
sg22
I19
sg23
I4
ssg24
S'RELAY19'
p1799
sg26
g1681
sg27
S'SPARE'
p1800
sba(ibacnet_io
BacnetObj
p1801
(dp1802
g17
Nsg18
(dp1803
g20
S'Binary Output'
p1804
sg22
I20
sg23
I4
ssg24
S'RELAY20'
p1805
sg26
g1681
sg27
S'SPARE'
p1806
sba(ibacnet_io
BacnetObj
p1807
(dp1808
g17
Nsg18
(dp1809
g20
S'Binary Output'
p1810
sg22
I21
sg23
I4
ssg24
S'RELAY21'
p1811
sg26
g1681
sg27
S'SPARE'
p1812
sba(ibacnet_io
BacnetObj
p1813
(dp1814
g17
Nsg18
(dp1815
g20
S'Binary Output'
p1816
sg22
I22
sg23
I4
ssg24
S'RELAY22'
p1817
sg26
g1681
sg27
S'SPARE'
p1818
sba(ibacnet_io
BacnetObj
p1819
(dp1820
g17
Nsg18
(dp1821
g20
S'Binary Output'
p1822
sg22
I23
sg23
I4
ssg24
S'RELAY23'
p1823
sg26
g1681
sg27
S'SPARE'
p1824
sba(ibacnet_io
BacnetObj
p1825
(dp1826
g17
Nsg18
(dp1827
g20
S'Binary Output'
p1828
sg22
I24
sg23
I4
ssg24
S'RELAY24'
p1829
sg26
g1681
sg27
S'SPARE'
p1830
sba(ibacnet_io
BacnetObj
p1831
(dp1832
g17
Nsg18
(dp1833
g20
S'Device'
p1834
sg22
I86010
sg23
I8
ssg24
S'WS86010'
p1835
sg26
g1681
sg27
S'RP6'
p1836
sbasg24
S'WS86010'
p1837
sg27
S'RP6'
p1838
sba(ibacnet_io
BacnetDev
p1839
(dp1840
g4
(dp1841
g6
(lp1842
I128
aI32
aI247
aI215
aI186
aI192
asg8
I1500
sg9
(lp1843
I0
aI0
aI0
aI0
aI33
aI163
asg11
I86
sg12
I86011
ssg13
(lp1844
(ibacnet_io
BacnetObj
p1845
(dp1846
g17
Nsg18
(dp1847
g20
S'Binary Output'
p1848
sg22
I1
sg23
I4
ssg24
S'RELAY01'
p1849
sg26
g1839
sg27
S'CORRIDOR (FIXTURES TYPE F8)'
p1850
sba(ibacnet_io
BacnetObj
p1851
(dp1852
g17
Nsg18
(dp1853
g20
S'Binary Output'
p1854
sg22
I2
sg23
I4
ssg24
S'RELAY02'
p1855
sg26
g1839
sg27
S'CORE AREAS'
p1856
sba(ibacnet_io
BacnetObj
p1857
(dp1858
g17
Nsg18
(dp1859
g20
S'Binary Output'
p1860
sg22
I3
sg23
I4
ssg24
S'RELAY03'
p1861
sg26
g1839
sg27
S'BALCONY'
p1862
sba(ibacnet_io
BacnetObj
p1863
(dp1864
g17
Nsg18
(dp1865
g20
S'Binary Output'
p1866
sg22
I4
sg23
I4
ssg24
S'RELAY04'
p1867
sg26
g1839
sg27
S'OPEN OFFICE 750'
p1868
sba(ibacnet_io
BacnetObj
p1869
(dp1870
g17
Nsg18
(dp1871
g20
S'Binary Output'
p1872
sg22
I5
sg23
I4
ssg24
S'RELAY05'
p1873
sg26
g1839
sg27
S'OPEN OFFICE 750'
p1874
sba(ibacnet_io
BacnetObj
p1875
(dp1876
g17
Nsg18
(dp1877
g20
S'Binary Output'
p1878
sg22
I6
sg23
I4
ssg24
S'RELAY06'
p1879
sg26
g1839
sg27
S'OPEN OFFICE 768'
p1880
sba(ibacnet_io
BacnetObj
p1881
(dp1882
g17
Nsg18
(dp1883
g20
S'Binary Output'
p1884
sg22
I7
sg23
I4
ssg24
S'RELAY07'
p1885
sg26
g1839
sg27
S'OPEN OFFICE 768'
p1886
sba(ibacnet_io
BacnetObj
p1887
(dp1888
g17
Nsg18
(dp1889
g20
S'Binary Output'
p1890
sg22
I8
sg23
I4
ssg24
S'RELAY08'
p1891
sg26
g1839
sg27
S'OPEN OFFICE 736'
p1892
sba(ibacnet_io
BacnetObj
p1893
(dp1894
g17
Nsg18
(dp1895
g20
S'Binary Output'
p1896
sg22
I9
sg23
I4
ssg24
S'RELAY09'
p1897
sg26
g1839
sg27
S'OPEN OFFICE 736'
p1898
sba(ibacnet_io
BacnetObj
p1899
(dp1900
g17
Nsg18
(dp1901
g20
S'Binary Output'
p1902
sg22
I10
sg23
I4
ssg24
S'RELAY10'
p1903
sg26
g1839
sg27
S'OPEN OFFICE 738'
p1904
sba(ibacnet_io
BacnetObj
p1905
(dp1906
g17
Nsg18
(dp1907
g20
S'Binary Output'
p1908
sg22
I11
sg23
I4
ssg24
S'RELAY11'
p1909
sg26
g1839
sg27
S'OPEN OFFICE 738'
p1910
sba(ibacnet_io
BacnetObj
p1911
(dp1912
g17
Nsg18
(dp1913
g20
S'Binary Output'
p1914
sg22
I12
sg23
I4
ssg24
S'RELAY12'
p1915
sg26
g1839
sg27
S'PANTRY 732 - TASK LIGHTS'
p1916
sba(ibacnet_io
BacnetObj
p1917
(dp1918
g17
Nsg18
(dp1919
g20
S'Binary Output'
p1920
sg22
I13
sg23
I4
ssg24
S'RELAY13'
p1921
sg26
g1839
sg27
S'SPARE'
p1922
sba(ibacnet_io
BacnetObj
p1923
(dp1924
g17
Nsg18
(dp1925
g20
S'Binary Output'
p1926
sg22
I14
sg23
I4
ssg24
S'RELAY14'
p1927
sg26
g1839
sg27
S'SPARE'
p1928
sba(ibacnet_io
BacnetObj
p1929
(dp1930
g17
Nsg18
(dp1931
g20
S'Binary Output'
p1932
sg22
I15
sg23
I4
ssg24
S'RELAY15'
p1933
sg26
g1839
sg27
S'SPARE'
p1934
sba(ibacnet_io
BacnetObj
p1935
(dp1936
g17
Nsg18
(dp1937
g20
S'Binary Output'
p1938
sg22
I16
sg23
I4
ssg24
S'RELAY16'
p1939
sg26
g1839
sg27
S'SPARE'
p1940
sba(ibacnet_io
BacnetObj
p1941
(dp1942
g17
Nsg18
(dp1943
g20
S'Binary Output'
p1944
sg22
I17
sg23
I4
ssg24
S'RELAY17'
p1945
sg26
g1839
sg27
S'SPARE'
p1946
sba(ibacnet_io
BacnetObj
p1947
(dp1948
g17
Nsg18
(dp1949
g20
S'Binary Output'
p1950
sg22
I18
sg23
I4
ssg24
S'RELAY18'
p1951
sg26
g1839
sg27
S'SPARE'
p1952
sba(ibacnet_io
BacnetObj
p1953
(dp1954
g17
Nsg18
(dp1955
g20
S'Binary Output'
p1956
sg22
I19
sg23
I4
ssg24
S'RELAY19'
p1957
sg26
g1839
sg27
S'SPARE'
p1958
sba(ibacnet_io
BacnetObj
p1959
(dp1960
g17
Nsg18
(dp1961
g20
S'Binary Output'
p1962
sg22
I20
sg23
I4
ssg24
S'RELAY20'
p1963
sg26
g1839
sg27
S'SPARE'
p1964
sba(ibacnet_io
BacnetObj
p1965
(dp1966
g17
Nsg18
(dp1967
g20
S'Binary Output'
p1968
sg22
I21
sg23
I4
ssg24
S'RELAY21'
p1969
sg26
g1839
sg27
S'SPARE'
p1970
sba(ibacnet_io
BacnetObj
p1971
(dp1972
g17
Nsg18
(dp1973
g20
S'Binary Output'
p1974
sg22
I22
sg23
I4
ssg24
S'RELAY22'
p1975
sg26
g1839
sg27
S'SPARE'
p1976
sba(ibacnet_io
BacnetObj
p1977
(dp1978
g17
Nsg18
(dp1979
g20
S'Binary Output'
p1980
sg22
I23
sg23
I4
ssg24
S'RELAY23'
p1981
sg26
g1839
sg27
S'SPARE'
p1982
sba(ibacnet_io
BacnetObj
p1983
(dp1984
g17
Nsg18
(dp1985
g20
S'Binary Output'
p1986
sg22
I24
sg23
I4
ssg24
S'RELAY24'
p1987
sg26
g1839
sg27
S'SPARE'
p1988
sba(ibacnet_io
BacnetObj
p1989
(dp1990
g17
Nsg18
(dp1991
g20
S'Device'
p1992
sg22
I86011
sg23
I8
ssg24
S'WS86011'
p1993
sg26
g1839
sg27
S'RP7'
p1994
sbasg24
S'WS86011'
p1995
sg27
S'RP7'
p1996
sba(ibacnet_io
BacnetDev
p1997
(dp1998
g4
(dp1999
g6
(lp2000
I128
aI32
aI247
aI215
aI186
aI192
asg8
I1500
sg9
(lp2001
I0
aI0
aI0
aI0
aI37
aI127
asg11
I86
sg12
I86999
ssg13
(lp2002
(ibacnet_io
BacnetObj
p2003
(dp2004
g17
Nsg18
(dp2005
g20
S'Binary Output'
p2006
sg22
I44
sg23
I4
ssg24
S'GROUP44'
p2007
sg26
g1997
sg27
S'RP4:HPSA-WEST'
p2008
sba(ibacnet_io
BacnetObj
p2009
(dp2010
g17
Nsg18
(dp2011
g20
S'Binary Output'
p2012
sg22
I45
sg23
I4
ssg24
S'GROUP45'
p2013
sg26
g1997
sg27
S'RP4:HPSA-EAST'
p2014
sba(ibacnet_io
BacnetObj
p2015
(dp2016
g17
Nsg18
(dp2017
g20
S'Binary Output'
p2018
sg22
I46
sg23
I4
ssg24
S'GROUP46'
p2019
sg26
g1997
sg27
S'RP5:HPSA-EAST'
p2020
sba(ibacnet_io
BacnetObj
p2021
(dp2022
g17
Nsg18
(dp2023
g20
S'Binary Output'
p2024
sg22
I47
sg23
I4
ssg24
S'GROUP47'
p2025
sg26
g1997
sg27
S'RP5:HPSA-WEST'
p2026
sba(ibacnet_io
BacnetObj
p2027
(dp2028
g17
Nsg18
(dp2029
g20
S'Binary Output'
p2030
sg22
I48
sg23
I4
ssg24
S'GROUP48'
p2031
sg26
g1997
sg27
S'RP7:HPSA-WEST'
p2032
sba(ibacnet_io
BacnetObj
p2033
(dp2034
g17
Nsg18
(dp2035
g20
S'Binary Output'
p2036
sg22
I49
sg23
I4
ssg24
S'GROUP49'
p2037
sg26
g1997
sg27
S'RP7:HPSA-EAST'
p2038
sba(ibacnet_io
BacnetObj
p2039
(dp2040
g17
Nsg18
(dp2041
g20
S'Binary Output'
p2042
sg22
I101
sg23
I4
ssg24
S'GROUP101'
p2043
sg26
g1997
sg27
S'Cafe Daylighting Control'
p2044
sba(ibacnet_io
BacnetObj
p2045
(dp2046
g17
Nsg18
(dp2047
g20
S'Binary Output'
p2048
sg22
I102
sg23
I4
ssg24
S'GROUP102'
p2049
sg26
g1997
sg27
S'EXTERIOR LIGHTING (PHOTO CELL)'
p2050
sba(ibacnet_io
BacnetObj
p2051
(dp2052
g17
Nsg18
(dp2053
g20
S'Binary Output'
p2054
sg22
I600
sg23
I4
ssg24
S'GROUP600'
p2055
sg26
g1997
sg27
S'06-A'
p2056
sba(ibacnet_io
BacnetObj
p2057
(dp2058
g17
Nsg18
(dp2059
g20
S'Binary Output'
p2060
sg22
I601
sg23
I4
ssg24
S'GROUP601'
p2061
sg26
g1997
sg27
S'06-B'
p2062
sba(ibacnet_io
BacnetObj
p2063
(dp2064
g17
Nsg18
(dp2065
g20
S'Binary Output'
p2066
sg22
I602
sg23
I4
ssg24
S'GROUP602'
p2067
sg26
g1997
sg27
S'06-C'
p2068
sba(ibacnet_io
BacnetObj
p2069
(dp2070
g17
Nsg18
(dp2071
g20
S'Binary Output'
p2072
sg22
I603
sg23
I4
ssg24
S'GROUP603'
p2073
sg26
g1997
sg27
S'06-D'
p2074
sba(ibacnet_io
BacnetObj
p2075
(dp2076
g17
Nsg18
(dp2077
g20
S'Binary Output'
p2078
sg22
I604
sg23
I4
ssg24
S'GROUP604'
p2079
sg26
g1997
sg27
S'06-E'
p2080
sba(ibacnet_io
BacnetObj
p2081
(dp2082
g17
Nsg18
(dp2083
g20
S'Binary Output'
p2084
sg22
I605
sg23
I4
ssg24
S'GROUP605'
p2085
sg26
g1997
sg27
S'06-F'
p2086
sba(ibacnet_io
BacnetObj
p2087
(dp2088
g17
Nsg18
(dp2089
g20
S'Binary Output'
p2090
sg22
I606
sg23
I4
ssg24
S'GROUP606'
p2091
sg26
g1997
sg27
S'06-G'
p2092
sba(ibacnet_io
BacnetObj
p2093
(dp2094
g17
Nsg18
(dp2095
g20
S'Binary Output'
p2096
sg22
I607
sg23
I4
ssg24
S'GROUP607'
p2097
sg26
g1997
sg27
S'06-H'
p2098
sba(ibacnet_io
BacnetObj
p2099
(dp2100
g17
Nsg18
(dp2101
g20
S'Binary Output'
p2102
sg22
I888
sg23
I4
ssg24
S'GROUP888'
p2103
sg26
g1997
sg27
S'Master Exterior Override'
p2104
sba(ibacnet_io
BacnetObj
p2105
(dp2106
g17
Nsg18
(dp2107
g20
S'Binary Output'
p2108
sg22
I900
sg23
I4
ssg24
S'GROUP900'
p2109
sg26
g1997
sg27
S'09-A'
p2110
sba(ibacnet_io
BacnetObj
p2111
(dp2112
g17
Nsg18
(dp2113
g20
S'Binary Output'
p2114
sg22
I901
sg23
I4
ssg24
S'GROUP901'
p2115
sg26
g1997
sg27
S'09-B'
p2116
sba(ibacnet_io
BacnetObj
p2117
(dp2118
g17
Nsg18
(dp2119
g20
S'Binary Output'
p2120
sg22
I902
sg23
I4
ssg24
S'GROUP902'
p2121
sg26
g1997
sg27
S'09-C'
p2122
sba(ibacnet_io
BacnetObj
p2123
(dp2124
g17
Nsg18
(dp2125
g20
S'Binary Output'
p2126
sg22
I903
sg23
I4
ssg24
S'GROUP903'
p2127
sg26
g1997
sg27
S'09-D'
p2128
sba(ibacnet_io
BacnetObj
p2129
(dp2130
g17
Nsg18
(dp2131
g20
S'Binary Output'
p2132
sg22
I904
sg23
I4
ssg24
S'GROUP904'
p2133
sg26
g1997
sg27
S'09-E'
p2134
sba(ibacnet_io
BacnetObj
p2135
(dp2136
g17
Nsg18
(dp2137
g20
S'Binary Output'
p2138
sg22
I905
sg23
I4
ssg24
S'GROUP905'
p2139
sg26
g1997
sg27
S'09-F'
p2140
sba(ibacnet_io
BacnetObj
p2141
(dp2142
g17
Nsg18
(dp2143
g20
S'Binary Output'
p2144
sg22
I906
sg23
I4
ssg24
S'GROUP906'
p2145
sg26
g1997
sg27
S'09-G'
p2146
sba(ibacnet_io
BacnetObj
p2147
(dp2148
g17
Nsg18
(dp2149
g20
S'Binary Output'
p2150
sg22
I907
sg23
I4
ssg24
S'GROUP907'
p2151
sg26
g1997
sg27
S'09-H'
p2152
sba(ibacnet_io
BacnetObj
p2153
(dp2154
g17
Nsg18
(dp2155
g20
S'Binary Output'
p2156
sg22
I8888
sg23
I4
ssg24
S'GROUP8888'
p2157
sg26
g1997
sg27
S'Load Shed'
p2158
sba(ibacnet_io
BacnetObj
p2159
(dp2160
g17
Nsg18
(dp2161
g20
S'Binary Output'
p2162
sg22
I12345
sg23
I4
ssg24
S'GROUP12345'
p2163
sg26
g1997
sg27
S'ADR 460 Light Test'
p2164
sba(ibacnet_io
BacnetObj
p2165
(dp2166
g17
Nsg18
(dp2167
g20
S'Device'
p2168
sg22
I86999
sg23
I8
ssg24
S'WS86999'
p2169
sg26
g1997
sg27
S''
sbasg24
S'WS86999'
p2170
sg27
S''
sba.